; Function Attrs: nounwind uwtable
define dso_local void @ExecEndTidScan(ptr noundef readonly captures(none) %0) local_unnamed_addr #0 {
  %2 = getelementptr inbounds nuw i8, ptr %0, i64 208
  %3 = load ptr, ptr %2, align 8
  %.not = icmp eq ptr %3, null
  br i1 %.not, label %10, label %4

4:                                                ; preds = %1
  %5 = load ptr, ptr %3, align 8
  %6 = getelementptr inbounds nuw i8, ptr %5, i64 320
  %7 = load ptr, ptr %6, align 8
  %8 = getelementptr inbounds nuw i8, ptr %7, i64 24
  %9 = load ptr, ptr %8, align 8
  tail call void %9(ptr noundef nonnull %3) #9
  br label %10

10:                                               ; preds = %4, %1
  ret void
}